; Function Attrs: mustprogress uwtable
define void @_ZN3nix19PosixSourceAccessor8readLinkB5cxx11ERKNS_9CanonPathE(ptr dead_on_unwind noalias writable sret(%"class.std::__cxx11::basic_string") align 8 %0, ptr noundef nonnull align 8 dereferenceable(56) %1, ptr noundef nonnull align 8 dereferenceable(32) %2) unnamed_addr #4 align 2 personality ptr @__gxx_personality_v0 {
  %4 = alloca %"class.std::optional.25", align 8
  %5 = alloca %"class.nix::CanonPath", align 8
  %6 = alloca %"class.std::__cxx11::basic_string", align 8
  %7 = alloca %"class.std::filesystem::__cxx11::path", align 8
  call void @_ZNK3nix9CanonPath6parentEv(ptr dead_on_unwind nonnull writable sret(%"class.std::optional.25") align 8 %4, ptr noundef nonnull align 8 dereferenceable(32) %2)
  %8 = getelementptr inbounds i8, ptr %4, i64 32
  %9 = load i8, ptr %8, align 8
  %10 = and i8 %9, 1
  %.not = icmp eq i8 %10, 0
  br i1 %.not, label %_ZNSt8optionalIN3nix9CanonPathEED2Ev.exit, label %11

11:                                               ; preds = %3
  invoke void @_ZNSt7__cxx1112basic_stringIcSt11char_traitsIcESaIcEEC2ERKS4_(ptr noundef nonnull align 8 dereferenceable(32) %5, ptr noundef nonnull align 8 dereferenceable(32) %4)
          to label %_ZN3nix9CanonPathC2ERKS0_.exit unwind label %19

_ZN3nix9CanonPathC2ERKS0_.exit:                   ; preds = %11
  invoke void @_ZN3nix19PosixSourceAccessor16assertNoSymlinksENS_9CanonPathE(ptr noundef nonnull align 8 dereferenceable(56) %1, ptr noundef nonnull %5)
          to label %12 unwind label %21

12:                                               ; preds = %_ZN3nix9CanonPathC2ERKS0_.exit
  %13 = load ptr, ptr %5, align 8
  %14 = getelementptr inbounds i8, ptr %5, i64 16
  %15 = icmp eq ptr %13, %14
  br i1 %15, label %_ZNKSt7__cxx1112basic_stringIcSt11char_traitsIcESaIcEE11_M_is_localEv.exit.thread.i.i.i, label %_ZNKSt7__cxx1112basic_stringIcSt11char_traitsIcESaIcEE11_M_is_localEv.exit.i.i.i

_ZNKSt7__cxx1112basic_stringIcSt11char_traitsIcESaIcEE11_M_is_localEv.exit.thread.i.i.i: ; preds = %12
  %16 = getelementptr inbounds i8, ptr %5, i64 8
  %17 = load i64, ptr %16, align 8
  %18 = icmp ult i64 %17, 16
  call void @llvm.assume(i1 %18)
  br label %23

_ZNKSt7__cxx1112basic_stringIcSt11char_traitsIcESaIcEE11_M_is_localEv.exit.i.i.i: ; preds = %12
  call void @_ZdlPv(ptr noundef %13) #29
  br label %23

19:                                               ; preds = %11
  %20 = landingpad { ptr, i32 }
          cleanup
  br label %48

21:                                               ; preds = %_ZN3nix9CanonPathC2ERKS0_.exit
  %22 = landingpad { ptr, i32 }
          cleanup
  call void @_ZN3nix9CanonPathD2Ev(ptr noundef nonnull align 8 dereferenceable(32) %5) #27
  br label %48

23:                                               ; preds = %_ZNKSt7__cxx1112basic_stringIcSt11char_traitsIcESaIcEE11_M_is_localEv.exit.i.i.i, %_ZNKSt7__cxx1112basic_stringIcSt11char_traitsIcESaIcEE11_M_is_localEv.exit.thread.i.i.i
  call void @_ZNSaIcED2Ev(ptr noundef nonnull align 1 dereferenceable(1) %5) #27
  %.pre = load i8, ptr %8, align 8
  %.pre13 = and i8 %.pre, 1
  %24 = icmp eq i8 %.pre13, 0
  br i1 %24, label %_ZNSt8optionalIN3nix9CanonPathEED2Ev.exit, label %25

25:                                               ; preds = %23
  store i8 0, ptr %8, align 8
  %26 = load ptr, ptr %4, align 8
  %27 = getelementptr inbounds i8, ptr %4, i64 16
  %28 = icmp eq ptr %26, %27
  br i1 %28, label %_ZNKSt7__cxx1112basic_stringIcSt11char_traitsIcESaIcEE11_M_is_localEv.exit.thread.i.i.i.i.i.i.i.i, label %_ZNKSt7__cxx1112basic_stringIcSt11char_traitsIcESaIcEE11_M_is_localEv.exit.i.i.i.i.i.i.i.i

_ZNKSt7__cxx1112basic_stringIcSt11char_traitsIcESaIcEE11_M_is_localEv.exit.thread.i.i.i.i.i.i.i.i: ; preds = %25
  %29 = getelementptr inbounds i8, ptr %4, i64 8
  %30 = load i64, ptr %29, align 8
  %31 = icmp ult i64 %30, 16
  call void @llvm.assume(i1 %31)
  br label %_ZNSt22_Optional_payload_baseIN3nix9CanonPathEE10_M_destroyEv.exit.i.i.i.i

_ZNKSt7__cxx1112basic_stringIcSt11char_traitsIcESaIcEE11_M_is_localEv.exit.i.i.i.i.i.i.i.i: ; preds = %25
  call void @_ZdlPv(ptr noundef %26) #29
  br label %_ZNSt22_Optional_payload_baseIN3nix9CanonPathEE10_M_destroyEv.exit.i.i.i.i

_ZNSt22_Optional_payload_baseIN3nix9CanonPathEE10_M_destroyEv.exit.i.i.i.i: ; preds = %_ZNKSt7__cxx1112basic_stringIcSt11char_traitsIcESaIcEE11_M_is_localEv.exit.i.i.i.i.i.i.i.i, %_ZNKSt7__cxx1112basic_stringIcSt11char_traitsIcESaIcEE11_M_is_localEv.exit.thread.i.i.i.i.i.i.i.i
  call void @_ZNSaIcED2Ev(ptr noundef nonnull align 1 dereferenceable(1) %4) #27
  br label %_ZNSt8optionalIN3nix9CanonPathEED2Ev.exit

_ZNSt8optionalIN3nix9CanonPathEED2Ev.exit:        ; preds = %3, %23, %_ZNSt22_Optional_payload_baseIN3nix9CanonPathEE10_M_destroyEv.exit.i.i.i.i
  call void @_ZN3nix19PosixSourceAccessor11makeAbsPathB5cxx11ERKNS_9CanonPathE(ptr dead_on_unwind nonnull writable sret(%"class.std::filesystem::__cxx11::path") align 8 %7, ptr noundef nonnull align 8 dereferenceable(56) %1, ptr noundef nonnull align 8 dereferenceable(32) %2)
  invoke void @_ZNSt7__cxx1112basic_stringIcSt11char_traitsIcESaIcEEC2ERKS4_(ptr noundef nonnull align 8 dereferenceable(32) %6, ptr noundef nonnull align 8 dereferenceable(32) %7)
          to label %_ZNKSt10filesystem7__cxx114pathcvNSt7__cxx1112basic_stringIcSt11char_traitsIcESaIcEEEEv.exit unwind label %49

_ZNKSt10filesystem7__cxx114pathcvNSt7__cxx1112basic_stringIcSt11char_traitsIcESaIcEEEEv.exit: ; preds = %_ZNSt8optionalIN3nix9CanonPathEED2Ev.exit
  invoke void @_ZN3nix8readLinkERKNSt7__cxx1112basic_stringIcSt11char_traitsIcESaIcEEE(ptr dead_on_unwind writable sret(%"class.std::__cxx11::basic_string") align 8 %0, ptr noundef nonnull align 8 dereferenceable(32) %6)
          to label %32 unwind label %51

32:                                               ; preds = %_ZNKSt10filesystem7__cxx114pathcvNSt7__cxx1112basic_stringIcSt11char_traitsIcESaIcEEEEv.exit
  %33 = load ptr, ptr %6, align 8
  %34 = getelementptr inbounds i8, ptr %6, i64 16
  %35 = icmp eq ptr %33, %34
  br i1 %35, label %_ZNKSt7__cxx1112basic_stringIcSt11char_traitsIcESaIcEE11_M_is_localEv.exit.thread.i.i, label %_ZNKSt7__cxx1112basic_stringIcSt11char_traitsIcESaIcEE11_M_is_localEv.exit.i.i

_ZNKSt7__cxx1112basic_stringIcSt11char_traitsIcESaIcEE11_M_is_localEv.exit.thread.i.i: ; preds = %32
  %36 = getelementptr inbounds i8, ptr %6, i64 8
  %37 = load i64, ptr %36, align 8
  %38 = icmp ult i64 %37, 16
  call void @llvm.assume(i1 %38)
  br label %_ZNSt7__cxx1112basic_stringIcSt11char_traitsIcESaIcEED2Ev.exit

_ZNKSt7__cxx1112basic_stringIcSt11char_traitsIcESaIcEE11_M_is_localEv.exit.i.i: ; preds = %32
  call void @_ZdlPv(ptr noundef %33) #29
  br label %_ZNSt7__cxx1112basic_stringIcSt11char_traitsIcESaIcEED2Ev.exit

_ZNSt7__cxx1112basic_stringIcSt11char_traitsIcESaIcEED2Ev.exit: ; preds = %_ZNKSt7__cxx1112basic_stringIcSt11char_traitsIcESaIcEE11_M_is_localEv.exit.thread.i.i, %_ZNKSt7__cxx1112basic_stringIcSt11char_traitsIcESaIcEE11_M_is_localEv.exit.i.i
  call void @_ZNSaIcED2Ev(ptr noundef nonnull align 1 dereferenceable(1) %6) #27
  %39 = getelementptr inbounds i8, ptr %7, i64 32
  %40 = load ptr, ptr %39, align 8
  %.not.i.i.i = icmp eq ptr %40, null
  br i1 %.not.i.i.i, label %_ZNSt10filesystem7__cxx114path5_ListD2Ev.exit.i, label %41

41:                                               ; preds = %_ZNSt7__cxx1112basic_stringIcSt11char_traitsIcESaIcEED2Ev.exit
  call void @_ZNKSt10filesystem7__cxx114path5_List13_Impl_deleterclEPNS2_5_ImplE(ptr noundef nonnull align 1 dereferenceable(1) %39, ptr noundef nonnull %40) #27
  br label %_ZNSt10filesystem7__cxx114path5_ListD2Ev.exit.i

_ZNSt10filesystem7__cxx114path5_ListD2Ev.exit.i:  ; preds = %41, %_ZNSt7__cxx1112basic_stringIcSt11char_traitsIcESaIcEED2Ev.exit
  store ptr null, ptr %39, align 8
  %42 = load ptr, ptr %7, align 8
  %43 = getelementptr inbounds i8, ptr %7, i64 16
  %44 = icmp eq ptr %42, %43
  br i1 %44, label %_ZNKSt7__cxx1112basic_stringIcSt11char_traitsIcESaIcEE11_M_is_localEv.exit.thread.i.i.i12, label %_ZNKSt7__cxx1112basic_stringIcSt11char_traitsIcESaIcEE11_M_is_localEv.exit.i.i.i11

_ZNKSt7__cxx1112basic_stringIcSt11char_traitsIcESaIcEE11_M_is_localEv.exit.thread.i.i.i12: ; preds = %_ZNSt10filesystem7__cxx114path5_ListD2Ev.exit.i
  %45 = getelementptr inbounds i8, ptr %7, i64 8
  %46 = load i64, ptr %45, align 8
  %47 = icmp ult i64 %46, 16
  call void @llvm.assume(i1 %47)
  br label %_ZNSt10filesystem7__cxx114pathD2Ev.exit

_ZNKSt7__cxx1112basic_stringIcSt11char_traitsIcESaIcEE11_M_is_localEv.exit.i.i.i11: ; preds = %_ZNSt10filesystem7__cxx114path5_ListD2Ev.exit.i
  call void @_ZdlPv(ptr noundef %42) #29
  br label %_ZNSt10filesystem7__cxx114pathD2Ev.exit

_ZNSt10filesystem7__cxx114pathD2Ev.exit:          ; preds = %_ZNKSt7__cxx1112basic_stringIcSt11char_traitsIcESaIcEE11_M_is_localEv.exit.thread.i.i.i12, %_ZNKSt7__cxx1112basic_stringIcSt11char_traitsIcESaIcEE11_M_is_localEv.exit.i.i.i11
  call void @_ZNSaIcED2Ev(ptr noundef nonnull align 1 dereferenceable(1) %7) #27
  ret void

48:                                               ; preds = %21, %19
  %.pn = phi { ptr, i32 } [ %22, %21 ], [ %20, %19 ]
  call void @_ZNSt8optionalIN3nix9CanonPathEED2Ev(ptr noundef nonnull align 8 dereferenceable(40) %4) #27
  br label %54

49:                                               ; preds = %_ZNSt8optionalIN3nix9CanonPathEED2Ev.exit
  %50 = landingpad { ptr, i32 }
          cleanup
  br label %53

51:                                               ; preds = %_ZNKSt10filesystem7__cxx114pathcvNSt7__cxx1112basic_stringIcSt11char_traitsIcESaIcEEEEv.exit
  %52 = landingpad { ptr, i32 }
          cleanup
  call void @_ZNSt7__cxx1112basic_stringIcSt11char_traitsIcESaIcEED2Ev(ptr noundef nonnull align 8 dereferenceable(32) %6) #27
  br label %53

53:                                               ; preds = %51, %49
  %.pn8 = phi { ptr, i32 } [ %52, %51 ], [ %50, %49 ]
  call void @_ZNSt10filesystem7__cxx114pathD2Ev(ptr noundef nonnull align 8 dereferenceable(40) %7) #27
  br label %54

54:                                               ; preds = %53, %48
  %.pn8.pn = phi { ptr, i32 } [ %.pn8, %53 ], [ %.pn, %48 ]
  resume { ptr, i32 } %.pn8.pn
}